#include <math.h>
#include <stdio.h>
#include <stdlib.h>
#include <string.h>

void main()
{
 int i,j,rec[25],n[25],m,k;
 scanf("%d",&k);
 for(i=0;i<=k-1;i++)
 {
  scanf("%d",&rec[i]);
  n[i]=1;
 }
 for(i=1;i<=k-1;i++)
  for(j=0;j<i;j++)
   if(rec[j]>=rec[i])
    n[i]=max(n[i],n[j]+1);
 m=0;
 for(i=0;i<k;i++)
  m=max(m,n[i]);
 printf("%d\n",m);
 }
int max(int a,int b)
{
 int c;
 c=a>b?a:b;
 return(c);
}